; Function Attrs: mustprogress nofree norecurse nounwind willreturn uwtable
define dso_local void @_ZN4node22SocketAddressBlockList22SocketAddressRangeRuleC2ERKSt10shared_ptrINS_13SocketAddressEES6_(ptr nocapture noundef nonnull writeonly align 8 dereferenceable(40) %this, ptr nocapture noundef nonnull readonly align 8 dereferenceable(16) %start_, ptr nocapture noundef nonnull readonly align 8 dereferenceable(16) %end_) unnamed_addr #7 align 2 {
entry:
  store ptr getelementptr inbounds ({ [12 x ptr] }, ptr @_ZTVN4node22SocketAddressBlockList22SocketAddressRangeRuleE, i64 0, i32 0, i64 2), ptr %this, align 8
  %start = getelementptr inbounds i8, ptr %this, i64 8
  %0 = load ptr, ptr %start_, align 8
  store ptr %0, ptr %start, align 8
  %_M_refcount.i.i = getelementptr inbounds i8, ptr %this, i64 16
  %_M_refcount3.i.i = getelementptr inbounds i8, ptr %start_, i64 8
  %1 = load ptr, ptr %_M_refcount3.i.i, align 8
  store ptr %1, ptr %_M_refcount.i.i, align 8
  %cmp.not.i.i.i = icmp eq ptr %1, null
  br i1 %cmp.not.i.i.i, label %_ZNSt10shared_ptrIN4node13SocketAddressEEC2ERKS2_.exit, label %if.then.i.i.i

if.then.i.i.i:                                    ; preds = %entry
  %_M_use_count.i.i.i.i = getelementptr inbounds i8, ptr %1, i64 8
  %2 = load i8, ptr @__libc_single_threaded, align 1
  %tobool.i.not.i.i.i.i = icmp eq i8 %2, 0
  br i1 %tobool.i.not.i.i.i.i, label %if.else.i.i.i.i.i, label %if.then.i.i.i.i.i

if.then.i.i.i.i.i:                                ; preds = %if.then.i.i.i
  %3 = load i32, ptr %_M_use_count.i.i.i.i, align 4
  %add.i.i.i.i.i = add nsw i32 %3, 1
  store i32 %add.i.i.i.i.i, ptr %_M_use_count.i.i.i.i, align 4
  br label %_ZNSt10shared_ptrIN4node13SocketAddressEEC2ERKS2_.exit

if.else.i.i.i.i.i:                                ; preds = %if.then.i.i.i
  %4 = atomicrmw volatile add ptr %_M_use_count.i.i.i.i, i32 1 acq_rel, align 4
  br label %_ZNSt10shared_ptrIN4node13SocketAddressEEC2ERKS2_.exit

_ZNSt10shared_ptrIN4node13SocketAddressEEC2ERKS2_.exit: ; preds = %entry, %if.then.i.i.i.i.i, %if.else.i.i.i.i.i
  %end = getelementptr inbounds i8, ptr %this, i64 24
  %5 = load ptr, ptr %end_, align 8
  store ptr %5, ptr %end, align 8
  %_M_refcount.i.i1 = getelementptr inbounds i8, ptr %this, i64 32
  %_M_refcount3.i.i2 = getelementptr inbounds i8, ptr %end_, i64 8
  %6 = load ptr, ptr %_M_refcount3.i.i2, align 8
  store ptr %6, ptr %_M_refcount.i.i1, align 8
  %cmp.not.i.i.i3 = icmp eq ptr %6, null
  br i1 %cmp.not.i.i.i3, label %_ZNSt10shared_ptrIN4node13SocketAddressEEC2ERKS2_.exit10, label %if.then.i.i.i4

if.then.i.i.i4:                                   ; preds = %_ZNSt10shared_ptrIN4node13SocketAddressEEC2ERKS2_.exit
  %_M_use_count.i.i.i.i5 = getelementptr inbounds i8, ptr %6, i64 8
  %7 = load i8, ptr @__libc_single_threaded, align 1
  %tobool.i.not.i.i.i.i6 = icmp eq i8 %7, 0
  br i1 %tobool.i.not.i.i.i.i6, label %if.else.i.i.i.i.i9, label %if.then.i.i.i.i.i7

if.then.i.i.i.i.i7:                               ; preds = %if.then.i.i.i4
  %8 = load i32, ptr %_M_use_count.i.i.i.i5, align 4
  %add.i.i.i.i.i8 = add nsw i32 %8, 1
  store i32 %add.i.i.i.i.i8, ptr %_M_use_count.i.i.i.i5, align 4
  br label %_ZNSt10shared_ptrIN4node13SocketAddressEEC2ERKS2_.exit10

if.else.i.i.i.i.i9:                               ; preds = %if.then.i.i.i4
  %9 = atomicrmw volatile add ptr %_M_use_count.i.i.i.i5, i32 1 acq_rel, align 4
  br label %_ZNSt10shared_ptrIN4node13SocketAddressEEC2ERKS2_.exit10

_ZNSt10shared_ptrIN4node13SocketAddressEEC2ERKS2_.exit10: ; preds = %_ZNSt10shared_ptrIN4node13SocketAddressEEC2ERKS2_.exit, %if.then.i.i.i.i.i7, %if.else.i.i.i.i.i9
  ret void
}